target datalayout = "e-m:e-p270:32:32-p271:32:32-p272:64:64-i64:64-i128:128-f80:128-n8:16:32:64-S128"
target triple = "x86_64-pc-linux-gnu"

%struct.bio_st = type { ptr, ptr, ptr, ptr, ptr, i32, i32, i32, i32, i32, ptr, ptr, ptr, %struct.CRYPTO_REF_COUNT, i64, i64, %struct.crypto_ex_data_st }
%struct.CRYPTO_REF_COUNT = type { i32 }
%struct.crypto_ex_data_st = type { ptr, ptr }
%struct.bio_accept_st = type { i32, i32, i32, i32, ptr, ptr, i32, ptr, ptr, %union.bio_addr_st, ptr, ptr, %union.bio_addr_st, ptr, ptr, ptr }
%union.bio_addr_st = type { %struct.sockaddr_in6, [84 x i8] }
%struct.sockaddr_in6 = type { i16, i16, i32, %struct.in6_addr, i32 }
%struct.in6_addr = type { %union.anon }
%union.anon = type { [4 x i32] }

@.str.2 = private unnamed_addr constant [33 x i8] c"../openssl/crypto/bio/bss_acpt.c\00", align 1

; Function Attrs: nounwind uwtable
define internal void @BIO_ACCEPT_free(ptr noundef %0) #0 {
  %2 = alloca ptr, align 8
  store ptr %0, ptr %2, align 8, !tbaa !20
  %3 = load ptr, ptr %2, align 8, !tbaa !20
  %4 = icmp eq ptr %3, null
  br i1 %4, label %5, label %6

5:                                                ; preds = %1
  br label %33

6:                                                ; preds = %1
  %7 = load ptr, ptr %2, align 8, !tbaa !20
  %8 = getelementptr inbounds nuw %struct.bio_accept_st, ptr %7, i32 0, i32 4
  %9 = load ptr, ptr %8, align 8, !tbaa !34
  call void @CRYPTO_free(ptr noundef %9, ptr noundef @.str.2, i32 noundef 106)
  %10 = load ptr, ptr %2, align 8, !tbaa !20
  %11 = getelementptr inbounds nuw %struct.bio_accept_st, ptr %10, i32 0, i32 5
  %12 = load ptr, ptr %11, align 8, !tbaa !33
  call void @CRYPTO_free(ptr noundef %12, ptr noundef @.str.2, i32 noundef 107)
  %13 = load ptr, ptr %2, align 8, !tbaa !20
  %14 = getelementptr inbounds nuw %struct.bio_accept_st, ptr %13, i32 0, i32 7
  %15 = load ptr, ptr %14, align 8, !tbaa !31
  call void @BIO_ADDRINFO_free(ptr noundef %15)
  %16 = load ptr, ptr %2, align 8, !tbaa !20
  %17 = getelementptr inbounds nuw %struct.bio_accept_st, ptr %16, i32 0, i32 10
  %18 = load ptr, ptr %17, align 8, !tbaa !47
  call void @CRYPTO_free(ptr noundef %18, ptr noundef @.str.2, i32 noundef 109)
  %19 = load ptr, ptr %2, align 8, !tbaa !20
  %20 = getelementptr inbounds nuw %struct.bio_accept_st, ptr %19, i32 0, i32 11
  %21 = load ptr, ptr %20, align 8, !tbaa !48
  call void @CRYPTO_free(ptr noundef %21, ptr noundef @.str.2, i32 noundef 110)
  %22 = load ptr, ptr %2, align 8, !tbaa !20
  %23 = getelementptr inbounds nuw %struct.bio_accept_st, ptr %22, i32 0, i32 13
  %24 = load ptr, ptr %23, align 8, !tbaa !49
  call void @CRYPTO_free(ptr noundef %24, ptr noundef @.str.2, i32 noundef 111)
  %25 = load ptr, ptr %2, align 8, !tbaa !20
  %26 = getelementptr inbounds nuw %struct.bio_accept_st, ptr %25, i32 0, i32 14
  %27 = load ptr, ptr %26, align 8, !tbaa !50
  call void @CRYPTO_free(ptr noundef %27, ptr noundef @.str.2, i32 noundef 112)
  %28 = load ptr, ptr %2, align 8, !tbaa !20
  %29 = getelementptr inbounds nuw %struct.bio_accept_st, ptr %28, i32 0, i32 15
  %30 = load ptr, ptr %29, align 8, !tbaa !37
  %31 = call i32 @BIO_free(ptr noundef %30)
  %32 = load ptr, ptr %2, align 8, !tbaa !20
  call void @CRYPTO_free(ptr noundef %32, ptr noundef @.str.2, i32 noundef 114)
  br label %33

33:                                               ; preds = %6, %5
  ret void
}

; Function Attrs: nounwind uwtable
define internal void @acpt_close_socket(ptr noundef %0) #0 {
  %2 = alloca ptr, align 8
  %3 = alloca ptr, align 8
  store ptr %0, ptr %2, align 8, !tbaa !8
  call void @llvm.lifetime.start.p0(i64 8, ptr %3) #6
  %4 = load ptr, ptr %2, align 8, !tbaa !8
  %5 = getelementptr inbounds nuw %struct.bio_st, ptr %4, i32 0, i32 10
  %6 = load ptr, ptr %5, align 8, !tbaa !12
  store ptr %6, ptr %3, align 8, !tbaa !20
  %7 = load ptr, ptr %3, align 8, !tbaa !20
  %8 = getelementptr inbounds nuw %struct.bio_accept_st, ptr %7, i32 0, i32 6
  %9 = load i32, ptr %8, align 8, !tbaa !41
  %10 = icmp ne i32 %9, -1
  br i1 %10, label %11, label %24

11:                                               ; preds = %1
  %12 = load ptr, ptr %3, align 8, !tbaa !20
  %13 = getelementptr inbounds nuw %struct.bio_accept_st, ptr %12, i32 0, i32 6
  %14 = load i32, ptr %13, align 8, !tbaa !41
  %15 = call i32 @shutdown(i32 noundef %14, i32 noundef 2) #6
  %16 = load ptr, ptr %3, align 8, !tbaa !20
  %17 = getelementptr inbounds nuw %struct.bio_accept_st, ptr %16, i32 0, i32 6
  %18 = load i32, ptr %17, align 8, !tbaa !41
  %19 = call i32 @close(i32 noundef %18)
  %20 = load ptr, ptr %3, align 8, !tbaa !20
  %21 = getelementptr inbounds nuw %struct.bio_accept_st, ptr %20, i32 0, i32 6
  store i32 -1, ptr %21, align 8, !tbaa !41
  %22 = load ptr, ptr %2, align 8, !tbaa !8
  %23 = getelementptr inbounds nuw %struct.bio_st, ptr %22, i32 0, i32 9
  store i32 -1, ptr %23, align 8, !tbaa !40
  br label %24

24:                                               ; preds = %11, %1
  call void @llvm.lifetime.end.p0(i64 8, ptr %3) #6
  ret void
}

; Function Attrs: nounwind uwtable
define internal i32 @acpt_free(ptr noundef %0) #0 {
  %2 = alloca i32, align 4
  %3 = alloca ptr, align 8
  %4 = alloca ptr, align 8
  %5 = alloca i32, align 4
  store ptr %0, ptr %3, align 8, !tbaa !8
  call void @llvm.lifetime.start.p0(i64 8, ptr %4) #6
  %6 = load ptr, ptr %3, align 8, !tbaa !8
  %7 = icmp eq ptr %6, null
  br i1 %7, label %8, label %9

8:                                                ; preds = %1
  store i32 0, ptr %2, align 4
  store i32 1, ptr %5, align 4
  br label %27

9:                                                ; preds = %1
  %10 = load ptr, ptr %3, align 8, !tbaa !8
  %11 = getelementptr inbounds nuw %struct.bio_st, ptr %10, i32 0, i32 10
  %12 = load ptr, ptr %11, align 8, !tbaa !12
  store ptr %12, ptr %4, align 8, !tbaa !20
  %13 = load ptr, ptr %3, align 8, !tbaa !8
  %14 = getelementptr inbounds nuw %struct.bio_st, ptr %13, i32 0, i32 6
  %15 = load i32, ptr %14, align 4, !tbaa !42
  %16 = icmp ne i32 %15, 0
  br i1 %16, label %17, label %26

17:                                               ; preds = %9
  %18 = load ptr, ptr %3, align 8, !tbaa !8
  call void @acpt_close_socket(ptr noundef %18)
  %19 = load ptr, ptr %4, align 8, !tbaa !20
  call void @BIO_ACCEPT_free(ptr noundef %19)
  %20 = load ptr, ptr %3, align 8, !tbaa !8
  %21 = getelementptr inbounds nuw %struct.bio_st, ptr %20, i32 0, i32 10
  store ptr null, ptr %21, align 8, !tbaa !12
  %22 = load ptr, ptr %3, align 8, !tbaa !8
  %23 = getelementptr inbounds nuw %struct.bio_st, ptr %22, i32 0, i32 7
  store i32 0, ptr %23, align 8, !tbaa !32
  %24 = load ptr, ptr %3, align 8, !tbaa !8
  %25 = getelementptr inbounds nuw %struct.bio_st, ptr %24, i32 0, i32 5
  store i32 0, ptr %25, align 8, !tbaa !35
  br label %26

26:                                               ; preds = %17, %9
  store i32 1, ptr %2, align 4
  store i32 1, ptr %5, align 4
  br label %27

27:                                               ; preds = %26, %8
  call void @llvm.lifetime.end.p0(i64 8, ptr %4) #6
  %28 = load i32, ptr %2, align 4
  ret i32 %28
}