; Function Attrs: nounwind uwtable
define internal range(i32 0, 2) i32 @acpt_free(ptr noundef captures(address_is_null) %0) #1 {
  %2 = icmp eq ptr %0, null
  br i1 %2, label %35, label %3

3:                                                ; preds = %1
  %4 = getelementptr inbounds nuw i8, ptr %0, i64 44
  %5 = load i32, ptr %4, align 4, !tbaa !36
  %.not = icmp eq i32 %5, 0
  br i1 %.not, label %35, label %6

6:                                                ; preds = %3
  %7 = getelementptr inbounds nuw i8, ptr %0, i64 64
  %8 = load ptr, ptr %7, align 8, !tbaa !3
  %9 = getelementptr inbounds nuw i8, ptr %8, i64 32
  %10 = load i32, ptr %9, align 8, !tbaa !24
  %.not.i = icmp eq i32 %10, -1
  br i1 %.not.i, label %BIO_ACCEPT_free.exit, label %11

11:                                               ; preds = %6
  %12 = tail call i32 @shutdown(i32 noundef %10, i32 noundef 2) #7
  %13 = load i32, ptr %9, align 8, !tbaa !24
  %14 = tail call i32 @close(i32 noundef %13) #7
  store i32 -1, ptr %9, align 8, !tbaa !24
  %15 = getelementptr inbounds nuw i8, ptr %0, i64 56
  store i32 -1, ptr %15, align 8, !tbaa !25
  br label %BIO_ACCEPT_free.exit

BIO_ACCEPT_free.exit:                             ; preds = %6, %11
  %16 = getelementptr inbounds nuw i8, ptr %8, i64 16
  %17 = load ptr, ptr %16, align 8, !tbaa !29
  tail call void @CRYPTO_free(ptr noundef %17, ptr noundef nonnull @.str.2, i32 noundef 106) #7
  %18 = getelementptr inbounds nuw i8, ptr %8, i64 24
  %19 = load ptr, ptr %18, align 8, !tbaa !28
  tail call void @CRYPTO_free(ptr noundef %19, ptr noundef nonnull @.str.2, i32 noundef 107) #7
  %20 = getelementptr inbounds nuw i8, ptr %8, i64 40
  %21 = load ptr, ptr %20, align 8, !tbaa !26
  tail call void @BIO_ADDRINFO_free(ptr noundef %21) #7
  %22 = getelementptr inbounds nuw i8, ptr %8, i64 168
  %23 = load ptr, ptr %22, align 8, !tbaa !37
  tail call void @CRYPTO_free(ptr noundef %23, ptr noundef nonnull @.str.2, i32 noundef 109) #7
  %24 = getelementptr inbounds nuw i8, ptr %8, i64 176
  %25 = load ptr, ptr %24, align 8, !tbaa !39
  tail call void @CRYPTO_free(ptr noundef %25, ptr noundef nonnull @.str.2, i32 noundef 110) #7
  %26 = getelementptr inbounds nuw i8, ptr %8, i64 296
  %27 = load ptr, ptr %26, align 8, !tbaa !40
  tail call void @CRYPTO_free(ptr noundef %27, ptr noundef nonnull @.str.2, i32 noundef 111) #7
  %28 = getelementptr inbounds nuw i8, ptr %8, i64 304
  %29 = load ptr, ptr %28, align 8, !tbaa !41
  tail call void @CRYPTO_free(ptr noundef %29, ptr noundef nonnull @.str.2, i32 noundef 112) #7
  %30 = getelementptr inbounds nuw i8, ptr %8, i64 312
  %31 = load ptr, ptr %30, align 8, !tbaa !32
  %32 = tail call i32 @BIO_free(ptr noundef %31) #7
  tail call void @CRYPTO_free(ptr noundef nonnull %8, ptr noundef nonnull @.str.2, i32 noundef 114) #7
  store ptr null, ptr %7, align 8, !tbaa !3
  %33 = getelementptr inbounds nuw i8, ptr %0, i64 48
  store i32 0, ptr %33, align 8, !tbaa !27
  %34 = getelementptr inbounds nuw i8, ptr %0, i64 40
  store i32 0, ptr %34, align 8, !tbaa !30
  br label %35

35:                                               ; preds = %3, %BIO_ACCEPT_free.exit, %1
  %.0 = phi i32 [ 0, %1 ], [ 1, %BIO_ACCEPT_free.exit ], [ 1, %3 ]
  ret i32 %.0
}